; ModuleID = '39/1803.c'
source_filename = "39/1803.c"
target datalayout = "e-m:e-p270:32:32-p271:32:32-p272:64:64-i64:64-f80:128-n8:16:32:64-S128"
target triple = "x86_64-pc-linux-gnu"

@.str = private unnamed_addr constant [3 x i8] c"%d\00", align 1
@.str.1 = private unnamed_addr constant [18 x i8] c"%s %d %d %c %c %d\00", align 1
@.str.2 = private unnamed_addr constant [10 x i8] c"%s\0A%d\0A%d\0A\00", align 1

; Function Attrs: noinline nounwind uwtable
define dso_local i32 @main() #0 {
  %1 = alloca i32, align 4
  %2 = alloca i32, align 4
  %3 = alloca i32, align 4
  %4 = alloca i32, align 4
  %5 = alloca i32, align 4
  %6 = alloca i32, align 4
  %7 = alloca i32, align 4
  %8 = alloca i32, align 4
  %9 = alloca i32, align 4
  %10 = alloca i8, align 1
  %11 = alloca i8, align 1
  %12 = alloca [21 x i8], align 16
  %13 = alloca [21 x i8], align 16
  store i32 0, i32* %1, align 4
  %14 = call i32 (i8*, ...) @__isoc99_scanf(i8* getelementptr inbounds ([3 x i8], [3 x i8]* @.str, i64 0, i64 0), i32* %2)
  store i32 0, i32* %9, align 4
  store i32 0, i32* %8, align 4
  store i32 0, i32* %3, align 4
  br label %15

15:                                               ; preds = %78, %0
  %16 = load i32, i32* %3, align 4
  %17 = load i32, i32* %2, align 4
  %18 = icmp slt i32 %16, %17
  br i1 %18, label %19, label %81

19:                                               ; preds = %15
  %20 = getelementptr inbounds [21 x i8], [21 x i8]* %12, i64 0, i64 0
  %21 = call i32 (i8*, ...) @__isoc99_scanf(i8* getelementptr inbounds ([18 x i8], [18 x i8]* @.str.1, i64 0, i64 0), i8* %20, i32* %4, i32* %5, i8* %10, i8* %11, i32* %6)
  store i32 0, i32* %7, align 4
  %22 = load i32, i32* %4, align 4
  %23 = icmp sgt i32 %22, 80
  br i1 %23, label %24, label %30

24:                                               ; preds = %19
  %25 = load i32, i32* %6, align 4
  %26 = icmp sgt i32 %25, 0
  br i1 %26, label %27, label %30

27:                                               ; preds = %24
  %28 = load i32, i32* %7, align 4
  %29 = add nsw i32 %28, 8000
  store i32 %29, i32* %7, align 4
  br label %30

30:                                               ; preds = %27, %24, %19
  %31 = load i32, i32* %4, align 4
  %32 = icmp sgt i32 %31, 85
  br i1 %32, label %33, label %39

33:                                               ; preds = %30
  %34 = load i32, i32* %5, align 4
  %35 = icmp sgt i32 %34, 80
  br i1 %35, label %36, label %39

36:                                               ; preds = %33
  %37 = load i32, i32* %7, align 4
  %38 = add nsw i32 %37, 4000
  store i32 %38, i32* %7, align 4
  br label %39

39:                                               ; preds = %36, %33, %30
  %40 = load i32, i32* %4, align 4
  %41 = icmp sgt i32 %40, 90
  br i1 %41, label %42, label %45

42:                                               ; preds = %39
  %43 = load i32, i32* %7, align 4
  %44 = add nsw i32 %43, 2000
  store i32 %44, i32* %7, align 4
  br label %45

45:                                               ; preds = %42, %39
  %46 = load i32, i32* %4, align 4
  %47 = icmp sgt i32 %46, 85
  br i1 %47, label %48, label %55

48:                                               ; preds = %45
  %49 = load i8, i8* %11, align 1
  %50 = sext i8 %49 to i32
  %51 = icmp eq i32 %50, 89
  br i1 %51, label %52, label %55

52:                                               ; preds = %48
  %53 = load i32, i32* %7, align 4
  %54 = add nsw i32 %53, 1000
  store i32 %54, i32* %7, align 4
  br label %55

55:                                               ; preds = %52, %48, %45
  %56 = load i32, i32* %5, align 4
  %57 = icmp sgt i32 %56, 80
  br i1 %57, label %58, label %65

58:                                               ; preds = %55
  %59 = load i8, i8* %10, align 1
  %60 = sext i8 %59 to i32
  %61 = icmp eq i32 %60, 89
  br i1 %61, label %62, label %65

62:                                               ; preds = %58
  %63 = load i32, i32* %7, align 4
  %64 = add nsw i32 %63, 850
  store i32 %64, i32* %7, align 4
  br label %65

65:                                               ; preds = %62, %58, %55
  %66 = load i32, i32* %7, align 4
  %67 = load i32, i32* %8, align 4
  %68 = icmp sgt i32 %66, %67
  br i1 %68, label %69, label %74

69:                                               ; preds = %65
  %70 = getelementptr inbounds [21 x i8], [21 x i8]* %13, i64 0, i64 0
  %71 = getelementptr inbounds [21 x i8], [21 x i8]* %12, i64 0, i64 0
  %72 = call i8* @strcpy(i8* %70, i8* %71) #3
  %73 = load i32, i32* %7, align 4
  store i32 %73, i32* %8, align 4
  br label %74

74:                                               ; preds = %69, %65
  %75 = load i32, i32* %7, align 4
  %76 = load i32, i32* %9, align 4
  %77 = add nsw i32 %76, %75
  store i32 %77, i32* %9, align 4
  br label %78

78:                                               ; preds = %74
  %79 = load i32, i32* %3, align 4
  %80 = add nsw i32 %79, 1
  store i32 %80, i32* %3, align 4
  br label %15

81:                                               ; preds = %15
  %82 = getelementptr inbounds [21 x i8], [21 x i8]* %13, i64 0, i64 0
  %83 = load i32, i32* %8, align 4
  %84 = load i32, i32* %9, align 4
  %85 = call i32 (i8*, ...) @printf(i8* getelementptr inbounds ([10 x i8], [10 x i8]* @.str.2, i64 0, i64 0), i8* %82, i32 %83, i32 %84)
  ret i32 0
}

declare dso_local i32 @__isoc99_scanf(i8*, ...) #1

; Function Attrs: nounwind
declare dso_local i8* @strcpy(i8*, i8*) #2

declare dso_local i32 @printf(i8*, ...) #1


!llvm.module.flags = !{!0}
!llvm.ident = !{!1}

!0 = !{i32 1, !"wchar_size", i32 4}
!1 = !{!"clang version 10.0.0-4ubuntu1 "}
